target datalayout = "e-m:e-p270:32:32-p271:32:32-p272:64:64-i64:64-i128:128-f80:128-n8:16:32:64-S128"
target triple = "x86_64-pc-linux-gnu"

%struct.malloc_params = type { i64, i64, i64, i64, i64, i32 }
%struct.malloc_state = type { i32, i32, i64, i64, ptr, ptr, ptr, i64, i64, i64, [66 x ptr], [32 x ptr], i64, i64, i64, i32, i32, %struct.malloc_segment, ptr, i64 }
%struct.malloc_segment = type { ptr, i64, ptr, i32 }
%struct.malloc_chunk = type { i64, i64, ptr, ptr }

@mparams = internal global %struct.malloc_params zeroinitializer, align 8
@_gm_ = internal global %struct.malloc_state zeroinitializer, align 8
@s_allocated_memory = internal global i64 0, align 8

; Function Attrs: nounwind uwtable
define hidden ptr @mspace_memalign(ptr noundef %0, i64 noundef %1, i64 noundef %2) #0 {
  %4 = alloca ptr, align 8
  %5 = alloca ptr, align 8
  %6 = alloca i64, align 8
  %7 = alloca i64, align 8
  %8 = alloca ptr, align 8
  %9 = alloca i32, align 4
  store ptr %0, ptr %5, align 8, !tbaa !16
  store i64 %1, ptr %6, align 8, !tbaa !3
  store i64 %2, ptr %7, align 8, !tbaa !3
  call void @llvm.lifetime.start.p0(i64 8, ptr %8) #9
  %10 = load ptr, ptr %5, align 8, !tbaa !16
  store ptr %10, ptr %8, align 8, !tbaa !16
  %11 = load i64, ptr %6, align 8, !tbaa !3
  %12 = icmp ule i64 %11, 16
  br i1 %12, label %13, label %17

13:                                               ; preds = %3
  %14 = load ptr, ptr %5, align 8, !tbaa !16
  %15 = load i64, ptr %7, align 8, !tbaa !3
  %16 = call ptr @mspace_malloc(ptr noundef %14, i64 noundef %15)
  store ptr %16, ptr %4, align 8
  store i32 1, ptr %9, align 4
  br label %22

17:                                               ; preds = %3
  %18 = load ptr, ptr %8, align 8, !tbaa !16
  %19 = load i64, ptr %6, align 8, !tbaa !3
  %20 = load i64, ptr %7, align 8, !tbaa !3
  %21 = call ptr @internal_memalign(ptr noundef %18, i64 noundef %19, i64 noundef %20)
  store ptr %21, ptr %4, align 8
  store i32 1, ptr %9, align 4
  br label %22

22:                                               ; preds = %17, %13
  call void @llvm.lifetime.end.p0(i64 8, ptr %8) #9
  %23 = load ptr, ptr %4, align 8
  ret ptr %23
}

; Function Attrs: nounwind uwtable
define hidden ptr @boost_cont_memalign(i64 noundef %0, i64 noundef %1) #0 {
  %3 = alloca i64, align 8
  %4 = alloca i64, align 8
  %5 = alloca ptr, align 8
  store i64 %0, ptr %3, align 8, !tbaa !3
  store i64 %1, ptr %4, align 8, !tbaa !3
  call void @llvm.lifetime.start.p0(i64 8, ptr %5) #9
  %6 = load i64, ptr @mparams, align 8, !tbaa !7
  %7 = icmp ne i64 %6, 0
  br i1 %7, label %10, label %8

8:                                                ; preds = %2
  %9 = call i32 @init_mparams()
  br label %10

10:                                               ; preds = %8, %2
  %11 = load i64, ptr %4, align 8, !tbaa !3
  %12 = load i64, ptr %3, align 8, !tbaa !3
  %13 = call ptr @mspace_memalign(ptr noundef @_gm_, i64 noundef %11, i64 noundef %12)
  store ptr %13, ptr %5, align 8, !tbaa !16
  %14 = load ptr, ptr %5, align 8, !tbaa !16
  %15 = icmp ne ptr %14, null
  br i1 %15, label %16, label %24

16:                                               ; preds = %10
  %17 = load ptr, ptr %5, align 8, !tbaa !16
  %18 = getelementptr inbounds i8, ptr %17, i64 -16
  %19 = getelementptr inbounds nuw %struct.malloc_chunk, ptr %18, i32 0, i32 1
  %20 = load i64, ptr %19, align 8, !tbaa !21
  %21 = and i64 %20, -8
  %22 = load i64, ptr @s_allocated_memory, align 8, !tbaa !3
  %23 = add i64 %22, %21
  store i64 %23, ptr @s_allocated_memory, align 8, !tbaa !3
  br label %24

24:                                               ; preds = %16, %10
  %25 = load ptr, ptr %5, align 8, !tbaa !16
  call void @llvm.lifetime.end.p0(i64 8, ptr %5) #9
  ret ptr %25
}