; Function Attrs: nounwind uwtable
define hidden ptr @boost_cont_memalign(i64 noundef %0, i64 noundef %1) local_unnamed_addr #0 {
  %3 = load i64, ptr @mparams, align 8, !tbaa !3
  %.not = icmp eq i64 %3, 0
  br i1 %.not, label %4, label %5

4:                                                ; preds = %2
  tail call fastcc void @init_mparams()
  br label %5

5:                                                ; preds = %4, %2
  %6 = icmp ult i64 %1, 17
  br i1 %6, label %7, label %9

7:                                                ; preds = %5
  %8 = tail call ptr @mspace_malloc(ptr noundef nonnull @_gm_, i64 noundef %0)
  br label %mspace_memalign.exit

9:                                                ; preds = %5
  %10 = tail call fastcc ptr @internal_memalign(ptr noundef nonnull @_gm_, i64 noundef %1, i64 noundef %0)
  br label %mspace_memalign.exit

mspace_memalign.exit:                             ; preds = %7, %9
  %.0.i = phi ptr [ %8, %7 ], [ %10, %9 ]
  %.not4 = icmp eq ptr %.0.i, null
  br i1 %.not4, label %17, label %11

11:                                               ; preds = %mspace_memalign.exit
  %12 = getelementptr inbounds i8, ptr %.0.i, i64 -8
  %13 = load i64, ptr %12, align 8, !tbaa !23
  %14 = and i64 %13, -8
  %15 = load i64, ptr @s_allocated_memory, align 8, !tbaa !36
  %16 = add i64 %15, %14
  store i64 %16, ptr @s_allocated_memory, align 8, !tbaa !36
  br label %17

17:                                               ; preds = %11, %mspace_memalign.exit
  ret ptr %.0.i
}